target datalayout = "e-m:e-p270:32:32-p271:32:32-p272:64:64-i64:64-i128:128-f80:128-n8:16:32:64-S128"
target triple = "x86_64-pc-linux-gnu"

%struct.ISzAlloc = type { ptr, ptr }
%struct._IStateCoder = type { ptr, ptr, ptr, ptr, ptr }
%struct.CMixCoder = type { ptr, ptr, i32, [3 x i32], [3 x i64], [3 x i64], [4 x i64], [4 x %struct._IStateCoder] }

; Function Attrs: nounwind uwtable
define i32 @MixCoder_Code(ptr noundef %0, ptr noundef %1, ptr noundef %2, ptr noundef %3, ptr noundef %4, i32 noundef %5, i32 noundef %6, ptr noundef %7) #0 {
  %9 = alloca i32, align 4
  %10 = alloca ptr, align 8
  %11 = alloca ptr, align 8
  %12 = alloca ptr, align 8
  %13 = alloca ptr, align 8
  %14 = alloca ptr, align 8
  %15 = alloca i32, align 4
  %16 = alloca i32, align 4
  %17 = alloca ptr, align 8
  %18 = alloca i64, align 8
  %19 = alloca i64, align 8
  %20 = alloca i32, align 4
  %21 = alloca i32, align 4
  %22 = alloca i32, align 4
  %23 = alloca i32, align 4
  %24 = alloca ptr, align 8
  %25 = alloca ptr, align 8
  %26 = alloca i64, align 8
  %27 = alloca i64, align 8
  %28 = alloca ptr, align 8
  %29 = alloca i32, align 4
  %30 = alloca i32, align 4
  store ptr %0, ptr %10, align 8
  store ptr %1, ptr %11, align 8
  store ptr %2, ptr %12, align 8
  store ptr %3, ptr %13, align 8
  store ptr %4, ptr %14, align 8
  store i32 %5, ptr %15, align 4
  store i32 %6, ptr %16, align 4
  store ptr %7, ptr %17, align 8
  %31 = load ptr, ptr %12, align 8
  %32 = load i64, ptr %31, align 8
  store i64 %32, ptr %18, align 8
  %33 = load ptr, ptr %14, align 8
  %34 = load i64, ptr %33, align 8
  store i64 %34, ptr %19, align 8
  store i32 1, ptr %20, align 4
  %35 = load ptr, ptr %12, align 8
  store i64 0, ptr %35, align 8
  %36 = load ptr, ptr %14, align 8
  store i64 0, ptr %36, align 8
  %37 = load ptr, ptr %17, align 8
  store i32 2, ptr %37, align 4
  %38 = load ptr, ptr %10, align 8
  %39 = getelementptr inbounds %struct.CMixCoder, ptr %38, i32 0, i32 1
  %40 = load ptr, ptr %39, align 8
  %41 = icmp eq ptr %40, null
  br i1 %41, label %42, label %60

42:                                               ; preds = %8
  %43 = load ptr, ptr %10, align 8
  %44 = getelementptr inbounds %struct.CMixCoder, ptr %43, i32 0, i32 0
  %45 = load ptr, ptr %44, align 8
  %46 = getelementptr inbounds %struct.ISzAlloc, ptr %45, i32 0, i32 0
  %47 = load ptr, ptr %46, align 8
  %48 = load ptr, ptr %10, align 8
  %49 = getelementptr inbounds %struct.CMixCoder, ptr %48, i32 0, i32 0
  %50 = load ptr, ptr %49, align 8
  %51 = call ptr %47(ptr noundef %50, i64 noundef 393216)
  %52 = load ptr, ptr %10, align 8
  %53 = getelementptr inbounds %struct.CMixCoder, ptr %52, i32 0, i32 1
  store ptr %51, ptr %53, align 8
  %54 = load ptr, ptr %10, align 8
  %55 = getelementptr inbounds %struct.CMixCoder, ptr %54, i32 0, i32 1
  %56 = load ptr, ptr %55, align 8
  %57 = icmp eq ptr %56, null
  br i1 %57, label %58, label %59

58:                                               ; preds = %42
  store i32 2, ptr %9, align 4
  br label %260

59:                                               ; preds = %42
  br label %60

60:                                               ; preds = %59, %8
  %61 = load ptr, ptr %10, align 8
  %62 = getelementptr inbounds %struct.CMixCoder, ptr %61, i32 0, i32 2
  %63 = load i32, ptr %62, align 8
  %64 = icmp ne i32 %63, 1
  br i1 %64, label %65, label %66

65:                                               ; preds = %60
  store i32 0, ptr %16, align 4
  br label %66

66:                                               ; preds = %65, %60
  br label %67

67:                                               ; preds = %253, %66
  store i32 0, ptr %21, align 4
  store i32 0, ptr %22, align 4
  br label %68

68:                                               ; preds = %246, %67
  %69 = load i32, ptr %22, align 4
  %70 = load ptr, ptr %10, align 8
  %71 = getelementptr inbounds %struct.CMixCoder, ptr %70, i32 0, i32 2
  %72 = load i32, ptr %71, align 8
  %73 = icmp slt i32 %69, %72
  br i1 %73, label %74, label %249

74:                                               ; preds = %68
  %75 = load ptr, ptr %10, align 8
  %76 = getelementptr inbounds %struct.CMixCoder, ptr %75, i32 0, i32 7
  %77 = load i32, ptr %22, align 4
  %78 = sext i32 %77 to i64
  %79 = getelementptr inbounds [4 x %struct._IStateCoder], ptr %76, i64 0, i64 %78
  store ptr %79, ptr %24, align 8
  %80 = load i32, ptr %22, align 4
  %81 = icmp eq i32 %80, 0
  br i1 %81, label %82, label %89

82:                                               ; preds = %74
  %83 = load ptr, ptr %13, align 8
  store ptr %83, ptr %28, align 8
  %84 = load i64, ptr %19, align 8
  %85 = load ptr, ptr %14, align 8
  %86 = load i64, ptr %85, align 8
  %87 = sub i64 %84, %86
  store i64 %87, ptr %27, align 8
  %88 = load i32, ptr %15, align 4
  store i32 %88, ptr %29, align 4
  br label %128

89:                                               ; preds = %74
  %90 = load ptr, ptr %10, align 8
  %91 = getelementptr inbounds %struct.CMixCoder, ptr %90, i32 0, i32 1
  %92 = load ptr, ptr %91, align 8
  %93 = load i32, ptr %22, align 4
  %94 = sub nsw i32 %93, 1
  %95 = mul nsw i32 131072, %94
  %96 = sext i32 %95 to i64
  %97 = getelementptr inbounds i8, ptr %92, i64 %96
  %98 = load ptr, ptr %10, align 8
  %99 = getelementptr inbounds %struct.CMixCoder, ptr %98, i32 0, i32 4
  %100 = load i32, ptr %22, align 4
  %101 = sub nsw i32 %100, 1
  %102 = sext i32 %101 to i64
  %103 = getelementptr inbounds [3 x i64], ptr %99, i64 0, i64 %102
  %104 = load i64, ptr %103, align 8
  %105 = getelementptr inbounds i8, ptr %97, i64 %104
  store ptr %105, ptr %28, align 8
  %106 = load ptr, ptr %10, align 8
  %107 = getelementptr inbounds %struct.CMixCoder, ptr %106, i32 0, i32 5
  %108 = load i32, ptr %22, align 4
  %109 = sub nsw i32 %108, 1
  %110 = sext i32 %109 to i64
  %111 = getelementptr inbounds [3 x i64], ptr %107, i64 0, i64 %110
  %112 = load i64, ptr %111, align 8
  %113 = load ptr, ptr %10, align 8
  %114 = getelementptr inbounds %struct.CMixCoder, ptr %113, i32 0, i32 4
  %115 = load i32, ptr %22, align 4
  %116 = sub nsw i32 %115, 1
  %117 = sext i32 %116 to i64
  %118 = getelementptr inbounds [3 x i64], ptr %114, i64 0, i64 %117
  %119 = load i64, ptr %118, align 8
  %120 = sub i64 %112, %119
  store i64 %120, ptr %27, align 8
  %121 = load ptr, ptr %10, align 8
  %122 = getelementptr inbounds %struct.CMixCoder, ptr %121, i32 0, i32 3
  %123 = load i32, ptr %22, align 4
  %124 = sub nsw i32 %123, 1
  %125 = sext i32 %124 to i64
  %126 = getelementptr inbounds [3 x i32], ptr %122, i64 0, i64 %125
  %127 = load i32, ptr %126, align 4
  store i32 %127, ptr %29, align 4
  br label %128

128:                                              ; preds = %89, %82
  %129 = load i32, ptr %22, align 4
  %130 = load ptr, ptr %10, align 8
  %131 = getelementptr inbounds %struct.CMixCoder, ptr %130, i32 0, i32 2
  %132 = load i32, ptr %131, align 8
  %133 = sub nsw i32 %132, 1
  %134 = icmp eq i32 %129, %133
  br i1 %134, label %135, label %141

135:                                              ; preds = %128
  %136 = load ptr, ptr %11, align 8
  store ptr %136, ptr %25, align 8
  %137 = load i64, ptr %18, align 8
  %138 = load ptr, ptr %12, align 8
  %139 = load i64, ptr %138, align 8
  %140 = sub i64 %137, %139
  store i64 %140, ptr %26, align 8
  br label %164

141:                                              ; preds = %128
  %142 = load ptr, ptr %10, align 8
  %143 = getelementptr inbounds %struct.CMixCoder, ptr %142, i32 0, i32 4
  %144 = load i32, ptr %22, align 4
  %145 = sext i32 %144 to i64
  %146 = getelementptr inbounds [3 x i64], ptr %143, i64 0, i64 %145
  %147 = load i64, ptr %146, align 8
  %148 = load ptr, ptr %10, align 8
  %149 = getelementptr inbounds %struct.CMixCoder, ptr %148, i32 0, i32 5
  %150 = load i32, ptr %22, align 4
  %151 = sext i32 %150 to i64
  %152 = getelementptr inbounds [3 x i64], ptr %149, i64 0, i64 %151
  %153 = load i64, ptr %152, align 8
  %154 = icmp ne i64 %147, %153
  br i1 %154, label %155, label %156

155:                                              ; preds = %141
  br label %246

156:                                              ; preds = %141
  %157 = load ptr, ptr %10, align 8
  %158 = getelementptr inbounds %struct.CMixCoder, ptr %157, i32 0, i32 1
  %159 = load ptr, ptr %158, align 8
  %160 = load i32, ptr %22, align 4
  %161 = mul nsw i32 131072, %160
  %162 = sext i32 %161 to i64
  %163 = getelementptr inbounds i8, ptr %159, i64 %162
  store ptr %163, ptr %25, align 8
  store i64 131072, ptr %26, align 8
  br label %164

164:                                              ; preds = %156, %135
  %165 = load ptr, ptr %24, align 8
  %166 = getelementptr inbounds %struct._IStateCoder, ptr %165, i32 0, i32 4
  %167 = load ptr, ptr %166, align 8
  %168 = load ptr, ptr %24, align 8
  %169 = getelementptr inbounds %struct._IStateCoder, ptr %168, i32 0, i32 0
  %170 = load ptr, ptr %169, align 8
  %171 = load ptr, ptr %25, align 8
  %172 = load ptr, ptr %28, align 8
  %173 = load i32, ptr %29, align 4
  %174 = load i32, ptr %16, align 4
  %175 = call i32 %167(ptr noundef %170, ptr noundef %171, ptr noundef %26, ptr noundef %172, ptr noundef %27, i32 noundef %173, i32 noundef %174, ptr noundef %30)
  store i32 %175, ptr %23, align 4
  %176 = load i32, ptr %30, align 4
  %177 = icmp ne i32 %176, 0
  br i1 %177, label %179, label %178

178:                                              ; preds = %164
  store i32 0, ptr %20, align 4
  br label %179

179:                                              ; preds = %178, %164
  %180 = load i32, ptr %22, align 4
  %181 = icmp eq i32 %180, 0
  br i1 %181, label %182, label %190

182:                                              ; preds = %179
  %183 = load i64, ptr %27, align 8
  %184 = load ptr, ptr %14, align 8
  %185 = load i64, ptr %184, align 8
  %186 = add i64 %185, %183
  store i64 %186, ptr %184, align 8
  %187 = load i64, ptr %27, align 8
  %188 = load ptr, ptr %13, align 8
  %189 = getelementptr inbounds i8, ptr %188, i64 %187
  store ptr %189, ptr %13, align 8
  br label %200

190:                                              ; preds = %179
  %191 = load i64, ptr %27, align 8
  %192 = load ptr, ptr %10, align 8
  %193 = getelementptr inbounds %struct.CMixCoder, ptr %192, i32 0, i32 4
  %194 = load i32, ptr %22, align 4
  %195 = sub nsw i32 %194, 1
  %196 = sext i32 %195 to i64
  %197 = getelementptr inbounds [3 x i64], ptr %193, i64 0, i64 %196
  %198 = load i64, ptr %197, align 8
  %199 = add i64 %198, %191
  store i64 %199, ptr %197, align 8
  br label %200

200:                                              ; preds = %190, %182
  %201 = load i32, ptr %22, align 4
  %202 = load ptr, ptr %10, align 8
  %203 = getelementptr inbounds %struct.CMixCoder, ptr %202, i32 0, i32 2
  %204 = load i32, ptr %203, align 8
  %205 = sub nsw i32 %204, 1
  %206 = icmp eq i32 %201, %205
  br i1 %206, label %207, label %215

207:                                              ; preds = %200
  %208 = load i64, ptr %26, align 8
  %209 = load ptr, ptr %12, align 8
  %210 = load i64, ptr %209, align 8
  %211 = add i64 %210, %208
  store i64 %211, ptr %209, align 8
  %212 = load i64, ptr %26, align 8
  %213 = load ptr, ptr %11, align 8
  %214 = getelementptr inbounds i8, ptr %213, i64 %212
  store ptr %214, ptr %11, align 8
  br label %233

215:                                              ; preds = %200
  %216 = load i64, ptr %26, align 8
  %217 = load ptr, ptr %10, align 8
  %218 = getelementptr inbounds %struct.CMixCoder, ptr %217, i32 0, i32 5
  %219 = load i32, ptr %22, align 4
  %220 = sext i32 %219 to i64
  %221 = getelementptr inbounds [3 x i64], ptr %218, i64 0, i64 %220
  store i64 %216, ptr %221, align 8
  %222 = load ptr, ptr %10, align 8
  %223 = getelementptr inbounds %struct.CMixCoder, ptr %222, i32 0, i32 4
  %224 = load i32, ptr %22, align 4
  %225 = sext i32 %224 to i64
  %226 = getelementptr inbounds [3 x i64], ptr %223, i64 0, i64 %225
  store i64 0, ptr %226, align 8
  %227 = load i32, ptr %30, align 4
  %228 = load ptr, ptr %10, align 8
  %229 = getelementptr inbounds %struct.CMixCoder, ptr %228, i32 0, i32 3
  %230 = load i32, ptr %22, align 4
  %231 = sext i32 %230 to i64
  %232 = getelementptr inbounds [3 x i32], ptr %229, i64 0, i64 %231
  store i32 %227, ptr %232, align 4
  br label %233

233:                                              ; preds = %215, %207
  %234 = load i32, ptr %23, align 4
  %235 = icmp ne i32 %234, 0
  br i1 %235, label %236, label %238

236:                                              ; preds = %233
  %237 = load i32, ptr %23, align 4
  store i32 %237, ptr %9, align 4
  br label %260

238:                                              ; preds = %233
  %239 = load i64, ptr %26, align 8
  %240 = icmp ne i64 %239, 0
  br i1 %240, label %244, label %241

241:                                              ; preds = %238
  %242 = load i64, ptr %27, align 8
  %243 = icmp ne i64 %242, 0
  br i1 %243, label %244, label %245

244:                                              ; preds = %241, %238
  store i32 1, ptr %21, align 4
  br label %245

245:                                              ; preds = %244, %241
  br label %246

246:                                              ; preds = %245, %155
  %247 = load i32, ptr %22, align 4
  %248 = add nsw i32 %247, 1
  store i32 %248, ptr %22, align 4
  br label %68

249:                                              ; preds = %68
  %250 = load i32, ptr %21, align 4
  %251 = icmp ne i32 %250, 0
  br i1 %251, label %253, label %252

252:                                              ; preds = %249
  br label %254

253:                                              ; preds = %249
  br label %67

254:                                              ; preds = %252
  %255 = load i32, ptr %20, align 4
  %256 = icmp ne i32 %255, 0
  br i1 %256, label %257, label %259

257:                                              ; preds = %254
  %258 = load ptr, ptr %17, align 8
  store i32 1, ptr %258, align 4
  br label %259

259:                                              ; preds = %257, %254
  store i32 0, ptr %9, align 4
  br label %260

260:                                              ; preds = %259, %236, %58
  %261 = load i32, ptr %9, align 4
  ret i32 %261
}