; Function Attrs: nounwind uwtable
define i32 @MixCoder_Code(ptr noundef captures(none) %0, ptr noundef %1, ptr noundef captures(none) %2, ptr noundef %3, ptr noundef captures(none) %4, i32 noundef %5, i32 noundef %6, ptr noundef writeonly captures(none) initializes((0, 4)) %7) local_unnamed_addr #1 {
  %9 = alloca i64, align 8
  %10 = alloca i64, align 8
  %11 = alloca i32, align 4
  %12 = load i64, ptr %2, align 8
  %13 = load i64, ptr %4, align 8
  store i64 0, ptr %2, align 8
  store i64 0, ptr %4, align 8
  store i32 2, ptr %7, align 4
  %14 = getelementptr inbounds nuw i8, ptr %0, i64 8
  %15 = load ptr, ptr %14, align 8
  %16 = icmp eq ptr %15, null
  br i1 %16, label %17, label %22

17:                                               ; preds = %8
  %18 = load ptr, ptr %0, align 8
  %19 = load ptr, ptr %18, align 8
  %20 = tail call ptr %19(ptr noundef nonnull %18, i64 noundef 393216) #10
  store ptr %20, ptr %14, align 8
  %21 = icmp eq ptr %20, null
  br i1 %21, label %.loopexit, label %22

22:                                               ; preds = %17, %8
  %23 = getelementptr inbounds nuw i8, ptr %0, i64 16
  %24 = load i32, ptr %23, align 8
  %.not = icmp eq i32 %24, 1
  %spec.select = select i1 %.not, i32 %6, i32 0
  %25 = getelementptr inbounds nuw i8, ptr %0, i64 112
  %26 = getelementptr inbounds nuw i8, ptr %0, i64 32
  %27 = getelementptr inbounds nuw i8, ptr %0, i64 56
  %28 = getelementptr inbounds nuw i8, ptr %0, i64 20
  %29 = icmp sgt i32 %24, 0
  br i1 %29, label %.split, label %.split106.us.thread

.split:                                           ; preds = %22, %._crit_edge
  %30 = phi i32 [ %102, %._crit_edge ], [ %24, %22 ]
  %.080 = phi ptr [ %.282, %._crit_edge ], [ %3, %22 ]
  %.076 = phi i32 [ %.278, %._crit_edge ], [ 1, %22 ]
  %.072 = phi ptr [ %.2, %._crit_edge ], [ %1, %22 ]
  %31 = icmp sgt i32 %30, 0
  br i1 %31, label %.lr.ph, label %.split106.us

.lr.ph:                                           ; preds = %.split, %101
  %32 = phi i32 [ %102, %101 ], [ %30, %.split ]
  %indvars.iv = phi i64 [ %indvars.iv.next, %101 ], [ 0, %.split ]
  %.1101 = phi ptr [ %.2, %101 ], [ %.072, %.split ]
  %.07499 = phi i32 [ %.175, %101 ], [ 0, %.split ]
  %.17798 = phi i32 [ %.278, %101 ], [ %.076, %.split ]
  %.18197 = phi ptr [ %.282, %101 ], [ %.080, %.split ]
  %33 = getelementptr inbounds nuw [4 x %struct._IStateCoder], ptr %25, i64 0, i64 %indvars.iv
  %34 = icmp eq i64 %indvars.iv, 0
  br i1 %34, label %35, label %38

35:                                               ; preds = %.lr.ph
  %36 = load i64, ptr %4, align 8
  %37 = sub i64 %13, %36
  br label %51

38:                                               ; preds = %.lr.ph
  %39 = load ptr, ptr %14, align 8
  %40 = add nsw i64 %indvars.iv, -1
  %41 = shl nsw i64 %40, 17
  %42 = getelementptr inbounds i8, ptr %39, i64 %41
  %43 = getelementptr inbounds [3 x i64], ptr %26, i64 0, i64 %40
  %44 = load i64, ptr %43, align 8
  %45 = getelementptr inbounds i8, ptr %42, i64 %44
  %46 = getelementptr inbounds [3 x i64], ptr %27, i64 0, i64 %40
  %47 = load i64, ptr %46, align 8
  %48 = sub i64 %47, %44
  %49 = getelementptr inbounds [3 x i32], ptr %28, i64 0, i64 %40
  %50 = load i32, ptr %49, align 4
  br label %51

51:                                               ; preds = %38, %35
  %.sink = phi i64 [ %37, %35 ], [ %48, %38 ]
  %.069 = phi ptr [ %.18197, %35 ], [ %45, %38 ]
  %.0 = phi i32 [ %5, %35 ], [ %50, %38 ]
  store i64 %.sink, ptr %10, align 8
  %52 = add nsw i32 %32, -1
  %53 = zext i32 %52 to i64
  %54 = icmp eq i64 %indvars.iv, %53
  br i1 %54, label %55, label %58

55:                                               ; preds = %51
  %56 = load i64, ptr %2, align 8
  %57 = sub i64 %12, %56
  br label %67

58:                                               ; preds = %51
  %59 = getelementptr inbounds nuw [3 x i64], ptr %26, i64 0, i64 %indvars.iv
  %60 = load i64, ptr %59, align 8
  %61 = getelementptr inbounds nuw [3 x i64], ptr %27, i64 0, i64 %indvars.iv
  %62 = load i64, ptr %61, align 8
  %.not88 = icmp eq i64 %60, %62
  br i1 %.not88, label %63, label %101

63:                                               ; preds = %58
  %64 = load ptr, ptr %14, align 8
  %65 = shl nsw i64 %indvars.iv, 17
  %66 = getelementptr inbounds nuw i8, ptr %64, i64 %65
  br label %67

67:                                               ; preds = %63, %55
  %storemerge = phi i64 [ 131072, %63 ], [ %57, %55 ]
  %.070 = phi ptr [ %66, %63 ], [ %.1101, %55 ]
  store i64 %storemerge, ptr %9, align 8
  %68 = getelementptr inbounds nuw i8, ptr %33, i64 32
  %69 = load ptr, ptr %68, align 8
  %70 = load ptr, ptr %33, align 8
  %71 = call i32 %69(ptr noundef %70, ptr noundef %.070, ptr noundef nonnull %9, ptr noundef %.069, ptr noundef nonnull %10, i32 noundef %.0, i32 noundef %spec.select, ptr noundef nonnull %11) #10
  %72 = load i32, ptr %11, align 4
  %.not89 = icmp eq i32 %72, 0
  %spec.select91 = select i1 %.not89, i32 0, i32 %.17798
  %73 = load i64, ptr %10, align 8
  br i1 %34, label %74, label %78

74:                                               ; preds = %67
  %75 = load i64, ptr %4, align 8
  %76 = add i64 %75, %73
  store i64 %76, ptr %4, align 8
  %77 = getelementptr inbounds i8, ptr %.18197, i64 %73
  br label %83

78:                                               ; preds = %67
  %79 = add nsw i64 %indvars.iv, -1
  %80 = getelementptr inbounds [3 x i64], ptr %26, i64 0, i64 %79
  %81 = load i64, ptr %80, align 8
  %82 = add i64 %81, %73
  store i64 %82, ptr %80, align 8
  br label %83

83:                                               ; preds = %78, %74
  %.383 = phi ptr [ %77, %74 ], [ %.18197, %78 ]
  %84 = load i32, ptr %23, align 8
  %85 = add nsw i32 %84, -1
  %86 = zext i32 %85 to i64
  %87 = icmp eq i64 %indvars.iv, %86
  %88 = load i64, ptr %9, align 8
  br i1 %87, label %89, label %93

89:                                               ; preds = %83
  %90 = load i64, ptr %2, align 8
  %91 = add i64 %90, %88
  store i64 %91, ptr %2, align 8
  %92 = getelementptr inbounds i8, ptr %.1101, i64 %88
  br label %97

93:                                               ; preds = %83
  %94 = getelementptr inbounds nuw [3 x i64], ptr %27, i64 0, i64 %indvars.iv
  store i64 %88, ptr %94, align 8
  %95 = getelementptr inbounds nuw [3 x i64], ptr %26, i64 0, i64 %indvars.iv
  store i64 0, ptr %95, align 8
  %96 = getelementptr inbounds nuw [3 x i32], ptr %28, i64 0, i64 %indvars.iv
  store i32 %72, ptr %96, align 4
  br label %97

97:                                               ; preds = %93, %89
  %.3 = phi ptr [ %92, %89 ], [ %.1101, %93 ]
  %.not90 = icmp eq i32 %71, 0
  br i1 %.not90, label %98, label %.loopexit

98:                                               ; preds = %97
  %99 = icmp ne i64 %88, 0
  %100 = icmp ne i64 %73, 0
  %or.cond = select i1 %99, i1 true, i1 %100
  %spec.select92 = select i1 %or.cond, i32 1, i32 %.07499
  %.pre = load i32, ptr %23, align 8
  br label %101

101:                                              ; preds = %98, %58
  %102 = phi i32 [ %32, %58 ], [ %.pre, %98 ]
  %.282 = phi ptr [ %.18197, %58 ], [ %.383, %98 ]
  %.278 = phi i32 [ %.17798, %58 ], [ %spec.select91, %98 ]
  %.175 = phi i32 [ %.07499, %58 ], [ %spec.select92, %98 ]
  %.2 = phi ptr [ %.1101, %58 ], [ %.3, %98 ]
  %indvars.iv.next = add nuw nsw i64 %indvars.iv, 1
  %103 = sext i32 %102 to i64
  %104 = icmp slt i64 %indvars.iv.next, %103
  br i1 %104, label %.lr.ph, label %._crit_edge

._crit_edge:                                      ; preds = %101
  %105 = icmp eq i32 %.175, 0
  br i1 %105, label %.split106.us, label %.split, !llvm.loop !6

.split106.us:                                     ; preds = %.split, %._crit_edge
  %.177.lcssa112 = phi i32 [ %.278, %._crit_edge ], [ %.076, %.split ]
  %106 = icmp eq i32 %.177.lcssa112, 0
  br i1 %106, label %.loopexit, label %.split106.us.thread

.split106.us.thread:                              ; preds = %22, %.split106.us
  store i32 1, ptr %7, align 4
  br label %.loopexit

.loopexit:                                        ; preds = %97, %.split106.us, %.split106.us.thread, %17
  %.071 = phi i32 [ 2, %17 ], [ 0, %.split106.us.thread ], [ 0, %.split106.us ], [ %71, %97 ]
  ret i32 %.071
}